******************************************************************************
               TMS320C6x Linker PC v7.4.7                      
******************************************************************************
>> Linked Mon Oct 16 17:28:37 2023

OUTPUT FILE NAME:   <DSP.out>
ENTRY POINT SYMBOL: "_c_int00"  address: 00012e80


MEMORY CONFIGURATION

         name            origin    length      used     unused   attr    fill
----------------------  --------  ---------  --------  --------  ----  --------
  IVECS                 00000000   00000220  00000200  00000020  RWIX
  IRAM                  00000220   0002fde0  00013aea  0001c2f6  RWIX
  SDRAM                 80000000   01000000  00000000  01000000  RWIX
  FLASH                 90000000   00020000  00000000  00020000  RWIX


SECTION ALLOCATION MAP

 output                                  attributes/
section   page    origin      length       input sections
--------  ----  ----------  ----------   ----------------
.vectors   0    00000000    00000200     
                  00000000    00000200     Vectors_intr.obj (.vectors)

.far       0    00000220    0000febe     UNINITIALIZED
                  00000220    0000fca8     main.obj (.far)
                  0000fec8    000000f4     csl6713.lib : csl_irq.obj (.far)
                  0000ffbc    0000004c     c6713dskinit.obj (.far)
                  00010008    00000040     rts6700.lib : sin.obj (.far)
                  00010048    00000038     csl6713.lib : csl_mcbsp.obj (.far)
                  00010080    00000028     dsk6713bsl.lib : dsk6713_aic23_registers.obj (.far)
                  000100a8    00000020                    : dsk6713_aic23_setfreq.obj (.far)
                  000100c8    0000000c     rts6700.lib : exit.obj (.far)
                  000100d4    00000008     dsk6713bsl.lib : dsk6713_aic23_opencodec.obj (.far)
                  000100dc    00000002                    : dsk6713.obj (.far)

.text      0    000100e0    000030a0     
                  000100e0    000006e0     c6713dskinit.obj (.text)
                  000107c0    00000480     dsk6713bsl.lib : dsk6713.obj (.text)
                  00010c40    000003c0     DBuff.obj (.text)
                  00011000    00000340     rts6700.lib : divf.obj (.text:__divf)
                  00011340    00000300                 : sin.obj (.text:_sin)
                  00011640    00000300     dsk6713bsl.lib : dsk6713_aic23_opencodec.obj (.text)
                  00011940    00000240     rts6700.lib : memcpy62.obj (.text:_memcpy)
                  00011b80    00000200     main.obj (.text:retain)
                  00011d80    000001c0     csl6713.lib : csl_irq.obj (.text:_IRQ_map)
                  00011f40    000001a0                 : csl_mcbsp.obj (.text:_MCBSP_reset)
                  000120e0    000001a0     main.obj (.text)
                  00012280    00000140     dsk6713bsl.lib : dsk6713_aic23_registers.obj (.text)
                  000123c0    00000120     rts6700.lib : memset.obj (.text:_memset)
                  000124e0    00000100     csl6713.lib : csl_mcbsp.obj (.text:_MCBSP_open)
                  000125e0    00000100                 : csl_mcbsp.obj (.text:_MCBSP_start)
                  000126e0    00000100     rts6700.lib : autoinit.obj (.text:__auto_init)
                  000127e0    000000e0                 : strasg.obj (.text:__strasg)
                  000128c0    000000e0                 : exit.obj (.text:_exit)
                  000129a0    000000e0                 : modf.obj (.text:_modf)
                  00012a80    000000c0                 : round.obj (.text:__nround)
                  00012b40    000000c0                 : cpy_tbl.obj (.text:_copy_in)
                  00012c00    000000c0     dsk6713bsl.lib : dsk6713_aic23_setfreq.obj (.text)
                  00012cc0    000000a0     csl6713.lib : csl_mcbsp.obj (.text:_MCBSP_config)
                  00012d60    000000a0                 : csl_irq.obj (.text:_setMux)
                  00012e00    00000080     rts6700.lib : cpp_init.obj (.text:___TI_cpp_init)
                  00012e80    00000080                 : boot.obj (.text:_c_int00)
                  00012f00    00000040     csl6713.lib : csl_irq.obj (.text:_IRQ_enable)
                  00012f40    00000040                 : csl_irq.obj (.text:_IRQ_reset)
                  00012f80    00000040     rts6700.lib : args_main.obj (.text:__args_main)
                  00012fc0    00000040                 : trunc.obj (.text:__trunc)
                  00013000    00000020     Vectors_intr.obj (.text)
                  00013020    00000020     csl6713.lib : csl_irq.obj (.text:_IRQ_globalDisable)
                  00013040    00000020                 : csl_irq.obj (.text:_IRQ_globalEnable)
                  00013060    00000020                 : csl_irq.obj (.text:_IRQ_nmiEnable)
                  00013080    00000020                 : csl_irq.obj (.text:_IRQ_setVecs)
                  000130a0    00000020                 : csl_mcbsp.obj (.text:_MCBSP_getXmtEventId)
                  000130c0    00000020                 : csl_mcbsp.obj (.text:_MCBSP_read)
                  000130e0    00000020                 : csl_mcbsp.obj (.text:_MCBSP_rrdy)
                  00013100    00000020                 : csl_mcbsp.obj (.text:_MCBSP_write)
                  00013120    00000020                 : csl_mcbsp.obj (.text:_MCBSP_xrdy)
                  00013140    00000020     rts6700.lib : exit.obj (.text:_abort)
                  00013160    00000020     csl6713.lib : csl_irq.obj (.text)

.stack     0    00013180    00000800     UNINITIALIZED
                  00013180    00000008     rts6700.lib : boot.obj (.stack)
                  00013188    000007f8     --HOLE--

.cinit     0    00013980    0000030c     
                  00013980    0000012c     csl6713.lib : csl_irq.obj (.cinit)
                  00013aac    00000004     --HOLE-- [fill = 0]
                  00013ab0    00000058     c6713dskinit.obj (.cinit)
                  00013b08    00000054     csl6713.lib : csl_mcbsp.obj (.cinit)
                  00013b5c    00000004     --HOLE-- [fill = 0]
                  00013b60    00000054     main.obj (.cinit)
                  00013bb4    00000004     --HOLE-- [fill = 0]
                  00013bb8    00000048     rts6700.lib : sin.obj (.cinit)
                  00013c00    00000030     dsk6713bsl.lib : dsk6713_aic23_registers.obj (.cinit)
                  00013c30    0000002c     rts6700.lib : exit.obj (.cinit)
                  00013c5c    00000004     --HOLE-- [fill = 0]
                  00013c60    00000028     dsk6713bsl.lib : dsk6713_aic23_setfreq.obj (.cinit)
                  00013c88    00000004     --HOLE-- [fill = 0]

.const     0    00013c8c    00000060     
                  00013c8c    00000040     dsk6713bsl.lib : dsk6713_aic23_opencodec.obj (.const)
                  00013ccc    00000020                    : dsk6713.obj (.const)

.bss       0    00013cec    00000020     UNINITIALIZED
                  00013cec    00000012     main.obj (.bss)
                  00013cfe    00000002     --HOLE--
                  00013d00    0000000c     c6713dskinit.obj (.bss)


GLOBAL SYMBOLS: SORTED ALPHABETICALLY BY Name 

address    name
--------   ----
00013cec   $bss
00013cec   .bss
000100e0   .text
00013140   C$$EXIT
0000ffc0   _AIC23CfgData
0000ffbc   _AIC_data
00010c40   _Buffer_init
00010d4c   _Buffer_pop
00010e14   _Buffer_popPeriod
00010ca8   _Buffer_push
00010f1c   _Buffer_pushPeriod
00012134   _Buffer_wrap
00012184   _Buffer_wrapP
000100d4   _DSK6713_AIC23_codeccontrolhandle
000100d8   _DSK6713_AIC23_codecdatahandle
00012340   _DSK6713_AIC23_config
00011640   _DSK6713_AIC23_openCodec
00012318   _DSK6713_AIC23_rget
00012280   _DSK6713_AIC23_rset
00012c00   _DSK6713_AIC23_setFreq
00010bd4   _DSK6713_getVersion
0001080c   _DSK6713_init
00010b28   _DSK6713_rget
00010b3c   _DSK6713_rset
000100dc   _DSK6713_version
00010b50   _DSK6713_wait
00010ba8   _DSK6713_waitusec
00012f00   _IRQ_enable
00013020   _IRQ_globalDisable
00013040   _IRQ_globalEnable
00011d80   _IRQ_map
00013060   _IRQ_nmiEnable
00012f40   _IRQ_reset
00013080   _IRQ_setVecs
00012cc0   _MCBSP_config
000130a0   _MCBSP_getXmtEventId
000124e0   _MCBSP_open
000130c0   _MCBSP_read
00011f40   _MCBSP_reset
000130e0   _MCBSP_rrdy
000125e0   _MCBSP_start
00013100   _MCBSP_write
00013120   _MCBSP_xrdy
0000ffb4   __IRQ_dispatchTable
0000fef0   __IRQ_eventTable
00013160   __IRQ_hookFetchPacket
0000ff74   __IRQ_intTable
00010078   __MCBSP_hDev0
0001007c   __MCBSP_hDev1
00013980   __STACK_END
00000800   __STACK_SIZE
00000001   __TI_args_main
00012e00   ___TI_cpp_init
000100d0   ___TI_enable_exit_profile_output
ffffffff   ___TI_pprof_out_hndl
ffffffff   ___TI_prof_data_size
ffffffff   ___TI_prof_data_start
ffffffff   ___binit__
00013cec   ___bss__
ffffffff   ___c_args__
00013980   ___cinit__
00013d0c   ___end__
00013180   ___etext__
ffffffff   ___pinit__
000100e0   ___text__
00012f80   __args_main
000126e0   __auto_init
000100c8   __cleanup_ptr
00011000   __divf
000100cc   __dtors_ptr
00012a80   __nround
00013180   __stack
000127e0   __strasg
00012fc0   __trunc
00013140   _abort
0000813c   _buhany_jeffer
000100e0   _c6713_dsk_init
00012e80   _c_int00
00011b80   _c_int11
000101b8   _comm_intr
0001018c   _comm_poll
0000ffe0   _config
00012b40   _copy_in
000128c0   _exit
00013cec   _fs
00013cf4   _gain
00013d08   _hAIC23_handle
00013cf8   _i
00013cfc   _input
00010630   _input_left_sample
000106f0   _input_right_sample
0001056c   _input_sample
00000430   _jehany_buffer
00013cf0   _loop
0001221c   _main
00011940   _memcpy
000123c0   _memset
000129a0   _modf
00000230   _out_buffer
000103bc   _output_left_sample
00010494   _output_right_sample
000102e0   _output_sample
0000fe48   _period
00011340   _sin
00000220   _sine_table
00000020   _vector1
00000140   _vector10
00000180   _vector12
000001a0   _vector13
000001c0   _vector14
000001e0   _vector15
00000040   _vector2
00000060   _vector3
00000080   _vector4
000000a0   _vector5
000000c0   _vector6
000000e0   _vector7
00000100   _vector8
00000120   _vector9
00000000   _vectors
000120e0   _wrap
ffffffff   binit
00013980   cinit
00013d0c   end
00013180   etext
ffffffff   pinit


GLOBAL SYMBOLS: SORTED BY Symbol Address 

address    name
--------   ----
00000000   _vectors
00000001   __TI_args_main
00000020   _vector1
00000040   _vector2
00000060   _vector3
00000080   _vector4
000000a0   _vector5
000000c0   _vector6
000000e0   _vector7
00000100   _vector8
00000120   _vector9
00000140   _vector10
00000180   _vector12
000001a0   _vector13
000001c0   _vector14
000001e0   _vector15
00000220   _sine_table
00000230   _out_buffer
00000430   _jehany_buffer
00000800   __STACK_SIZE
0000813c   _buhany_jeffer
0000fe48   _period
0000fef0   __IRQ_eventTable
0000ff74   __IRQ_intTable
0000ffb4   __IRQ_dispatchTable
0000ffbc   _AIC_data
0000ffc0   _AIC23CfgData
0000ffe0   _config
00010078   __MCBSP_hDev0
0001007c   __MCBSP_hDev1
000100c8   __cleanup_ptr
000100cc   __dtors_ptr
000100d0   ___TI_enable_exit_profile_output
000100d4   _DSK6713_AIC23_codeccontrolhandle
000100d8   _DSK6713_AIC23_codecdatahandle
000100dc   _DSK6713_version
000100e0   .text
000100e0   ___text__
000100e0   _c6713_dsk_init
0001018c   _comm_poll
000101b8   _comm_intr
000102e0   _output_sample
000103bc   _output_left_sample
00010494   _output_right_sample
0001056c   _input_sample
00010630   _input_left_sample
000106f0   _input_right_sample
0001080c   _DSK6713_init
00010b28   _DSK6713_rget
00010b3c   _DSK6713_rset
00010b50   _DSK6713_wait
00010ba8   _DSK6713_waitusec
00010bd4   _DSK6713_getVersion
00010c40   _Buffer_init
00010ca8   _Buffer_push
00010d4c   _Buffer_pop
00010e14   _Buffer_popPeriod
00010f1c   _Buffer_pushPeriod
00011000   __divf
00011340   _sin
00011640   _DSK6713_AIC23_openCodec
00011940   _memcpy
00011b80   _c_int11
00011d80   _IRQ_map
00011f40   _MCBSP_reset
000120e0   _wrap
00012134   _Buffer_wrap
00012184   _Buffer_wrapP
0001221c   _main
00012280   _DSK6713_AIC23_rset
00012318   _DSK6713_AIC23_rget
00012340   _DSK6713_AIC23_config
000123c0   _memset
000124e0   _MCBSP_open
000125e0   _MCBSP_start
000126e0   __auto_init
000127e0   __strasg
000128c0   _exit
000129a0   _modf
00012a80   __nround
00012b40   _copy_in
00012c00   _DSK6713_AIC23_setFreq
00012cc0   _MCBSP_config
00012e00   ___TI_cpp_init
00012e80   _c_int00
00012f00   _IRQ_enable
00012f40   _IRQ_reset
00012f80   __args_main
00012fc0   __trunc
00013020   _IRQ_globalDisable
00013040   _IRQ_globalEnable
00013060   _IRQ_nmiEnable
00013080   _IRQ_setVecs
000130a0   _MCBSP_getXmtEventId
000130c0   _MCBSP_read
000130e0   _MCBSP_rrdy
00013100   _MCBSP_write
00013120   _MCBSP_xrdy
00013140   C$$EXIT
00013140   _abort
00013160   __IRQ_hookFetchPacket
00013180   ___etext__
00013180   __stack
00013180   etext
00013980   __STACK_END
00013980   ___cinit__
00013980   cinit
00013cec   $bss
00013cec   .bss
00013cec   ___bss__
00013cec   _fs
00013cf0   _loop
00013cf4   _gain
00013cf8   _i
00013cfc   _input
00013d08   _hAIC23_handle
00013d0c   ___end__
00013d0c   end
ffffffff   ___TI_pprof_out_hndl
ffffffff   ___TI_prof_data_size
ffffffff   ___TI_prof_data_start
ffffffff   ___binit__
ffffffff   ___c_args__
ffffffff   ___pinit__
ffffffff   binit
ffffffff   pinit

[126 symbols]
